(dp1
I0
(dp2
S'alternatives'
p3
(lp4
(lp5
(I14
I8
tp6
a(I0
I0
tp7
a(I0
I0
tp8
a(I0
I0
tp9
a(I0
I0
tp10
a(I0
I0
tp11
a(I0
I0
tp12
aa(lp13
(I0
I0
tp14
a(I0
I0
tp15
a(I0
I0
tp16
a(I0
I0
tp17
a(I0
I0
tp18
a(I0
I0
tp19
a(I0
I0
tp20
aasS'name'
p21
S're'
p22
ss.